target datalayout = "e-m:e-p270:32:32-p271:32:32-p272:64:64-i64:64-i128:128-f80:128-n8:16:32:64-S128"
target triple = "x86_64-pc-linux-gnu"

%class.symbol = type { ptr }
%class.params_ref = type { ptr }
%class.declare_tactic_cmd = type { %class.cmd, %class.symbol, ptr }
%class.cmd = type { ptr, %class.symbol, i32, i32 }
%class.parametric_cmd = type { %class.cmd, %class.symbol, ptr, %class.params_ref, %class.scoped_ptr.101 }
%class.scoped_ptr.101 = type { ptr }

@.str.76 = private unnamed_addr constant [15 x i8] c"declare-tactic\00", align 1
@.str.81 = private unnamed_addr constant [17 x i8] c"get-user-tactics\00", align 1
@.str.88 = private unnamed_addr constant [12 x i8] c"help-tactic\00", align 1
@.str.90 = private unnamed_addr constant [16 x i8] c"check-sat-using\00", align 1
@_ZTV14parametric_cmd = external unnamed_addr constant { [32 x ptr] }, align 8
@.str.115 = private unnamed_addr constant [6 x i8] c"apply\00", align 1

; Function Attrs: mustprogress nounwind uwtable
define linkonce_odr hidden void @_ZN3cmdD2Ev(ptr noundef nonnull align 8 dereferenceable(24) %0) unnamed_addr #8 comdat align 2 {
  %2 = alloca ptr, align 8
  store ptr %0, ptr %2, align 8, !tbaa !246
  ret void
}

; Function Attrs: mustprogress nounwind uwtable
define linkonce_odr hidden void @_ZN10scoped_ptrI12param_descrsEC2EPS0_(ptr noundef nonnull align 8 dereferenceable(8) %0, ptr noundef %1) unnamed_addr #8 comdat align 2 {
  %3 = alloca ptr, align 8
  %4 = alloca ptr, align 8
  store ptr %0, ptr %3, align 8, !tbaa !305
  store ptr %1, ptr %4, align 8, !tbaa !205
  %5 = load ptr, ptr %3, align 8
  %6 = getelementptr inbounds nuw %class.scoped_ptr.101, ptr %5, i32 0, i32 0
  %7 = load ptr, ptr %4, align 8, !tbaa !205
  store ptr %7, ptr %6, align 8, !tbaa !307
  ret void
}

; Function Attrs: mustprogress nounwind uwtable
define linkonce_odr hidden void @_ZN10params_refC2Ev(ptr noundef nonnull align 8 dereferenceable(8) %0) unnamed_addr #8 comdat align 2 {
  %2 = alloca ptr, align 8
  store ptr %0, ptr %2, align 8, !tbaa !225
  %3 = load ptr, ptr %2, align 8
  %4 = getelementptr inbounds nuw %class.params_ref, ptr %3, i32 0, i32 0
  store ptr null, ptr %4, align 8, !tbaa !227
  ret void
}

; Function Attrs: mustprogress uwtable
define linkonce_odr hidden void @_ZN14parametric_cmdC2EPKc(ptr noundef nonnull align 8 dereferenceable(56) %0, ptr noundef %1) unnamed_addr #4 comdat align 2 personality ptr @__gxx_personality_v0 {
  %3 = alloca ptr, align 8
  %4 = alloca ptr, align 8
  %5 = alloca ptr, align 8
  %6 = alloca i32, align 4
  store ptr %0, ptr %3, align 8, !tbaa !288
  store ptr %1, ptr %4, align 8, !tbaa !10
  %7 = load ptr, ptr %3, align 8
  %8 = load ptr, ptr %4, align 8, !tbaa !10
  call void @_ZN3cmdC2EPKc(ptr noundef nonnull align 8 dereferenceable(24) %7, ptr noundef %8)
  store ptr getelementptr inbounds inrange(-16, 240) ({ [32 x ptr] }, ptr @_ZTV14parametric_cmd, i32 0, i32 0, i32 2), ptr %7, align 8, !tbaa !31
  %9 = getelementptr inbounds nuw %class.parametric_cmd, ptr %7, i32 0, i32 1
  call void @_ZN6symbolC2Ev(ptr noundef nonnull align 8 dereferenceable(8) %9) #3
  %10 = getelementptr inbounds nuw %class.parametric_cmd, ptr %7, i32 0, i32 2
  store ptr null, ptr %10, align 8, !tbaa !304
  %11 = getelementptr inbounds nuw %class.parametric_cmd, ptr %7, i32 0, i32 3
  call void @_ZN10params_refC2Ev(ptr noundef nonnull align 8 dereferenceable(8) %11) #3
  %12 = getelementptr inbounds nuw %class.parametric_cmd, ptr %7, i32 0, i32 4
  invoke void @_ZN10scoped_ptrI12param_descrsEC2EPS0_(ptr noundef nonnull align 8 dereferenceable(8) %12, ptr noundef null)
          to label %13 unwind label %14

13:                                               ; preds = %2
  ret void

14:                                               ; preds = %2
  %15 = landingpad { ptr, i32 }
          cleanup
  %16 = extractvalue { ptr, i32 } %15, 0
  store ptr %16, ptr %5, align 8
  %17 = extractvalue { ptr, i32 } %15, 1
  store i32 %17, ptr %6, align 4
  call void @_ZN10params_refD1Ev(ptr noundef nonnull align 8 dereferenceable(8) %11) #3
  call void @_ZN3cmdD2Ev(ptr noundef nonnull align 8 dereferenceable(24) %7) #3
  br label %18

18:                                               ; preds = %14
  %19 = load ptr, ptr %5, align 8
  %20 = load i32, ptr %6, align 4
  %21 = insertvalue { ptr, i32 } poison, ptr %19, 0
  %22 = insertvalue { ptr, i32 } %21, i32 %20, 1
  resume { ptr, i32 } %22
}

; Function Attrs: mustprogress uwtable
define linkonce_odr hidden void @_ZN21exec_given_tactic_cmdC2EPKc(ptr noundef nonnull align 8 dereferenceable(64) %0, ptr noundef %1) unnamed_addr #4 comdat align 2 {
  %3 = alloca ptr, align 8
  %4 = alloca ptr, align 8
  store ptr %0, ptr %3, align 8, !tbaa !286
  store ptr %1, ptr %4, align 8, !tbaa !10
  %5 = load ptr, ptr %3, align 8
  %6 = load ptr, ptr %4, align 8, !tbaa !10
  call void @_ZN14parametric_cmdC2EPKc(ptr noundef nonnull align 8 dereferenceable(56) %5, ptr noundef %6)
  store ptr getelementptr inbounds inrange(-16, 240) ({ [32 x ptr] }, ptr @_ZTV21exec_given_tactic_cmd, i32 0, i32 0, i32 2), ptr %5, align 8, !tbaa !31
  ret void
}

; Function Attrs: mustprogress nounwind uwtable
define linkonce_odr hidden void @_ZN6symbolC2Ev(ptr noundef nonnull align 8 dereferenceable(8) %0) unnamed_addr #8 comdat align 2 {
  %2 = alloca ptr, align 8
  store ptr %0, ptr %2, align 8, !tbaa !8
  %3 = load ptr, ptr %2, align 8
  %4 = getelementptr inbounds nuw %class.symbol, ptr %3, i32 0, i32 0
  store ptr null, ptr %4, align 8, !tbaa !47
  ret void
}

; Function Attrs: mustprogress uwtable
define linkonce_odr hidden void @_ZN3cmdC2EPKc(ptr noundef nonnull align 8 dereferenceable(24) %0, ptr noundef %1) unnamed_addr #4 comdat align 2 {
  %3 = alloca ptr, align 8
  %4 = alloca ptr, align 8
  store ptr %0, ptr %3, align 8, !tbaa !246
  store ptr %1, ptr %4, align 8, !tbaa !10
  %5 = load ptr, ptr %3, align 8
  store ptr getelementptr inbounds inrange(-16, 224) ({ [30 x ptr] }, ptr @_ZTV3cmd, i32 0, i32 0, i32 2), ptr %5, align 8, !tbaa !31
  %6 = getelementptr inbounds nuw %class.cmd, ptr %5, i32 0, i32 1
  %7 = load ptr, ptr %4, align 8, !tbaa !10
  call void @_ZN6symbolC1EPKc(ptr noundef nonnull align 8 dereferenceable(8) %6, ptr noundef %7)
  %8 = getelementptr inbounds nuw %class.cmd, ptr %5, i32 0, i32 2
  store i32 0, ptr %8, align 8, !tbaa !248
  %9 = getelementptr inbounds nuw %class.cmd, ptr %5, i32 0, i32 3
  store i32 0, ptr %9, align 4, !tbaa !249
  ret void
}

; Function Attrs: mustprogress uwtable
define linkonce_odr hidden void @_ZN16apply_tactic_cmdC2Ev(ptr noundef nonnull align 8 dereferenceable(64) %0) unnamed_addr #4 comdat align 2 {
  %2 = alloca ptr, align 8
  store ptr %0, ptr %2, align 8, !tbaa !202
  %3 = load ptr, ptr %2, align 8
  call void @_ZN21exec_given_tactic_cmdC2EPKc(ptr noundef nonnull align 8 dereferenceable(64) %3, ptr noundef @.str.115)
  store ptr getelementptr inbounds inrange(-16, 240) ({ [32 x ptr] }, ptr @_ZTV16apply_tactic_cmd, i32 0, i32 0, i32 2), ptr %3, align 8, !tbaa !31
  ret void
}

; Function Attrs: mustprogress uwtable
define linkonce_odr hidden void @_ZN26check_sat_using_tactic_cmdC2Ev(ptr noundef nonnull align 8 dereferenceable(64) %0) unnamed_addr #4 comdat align 2 {
  %2 = alloca ptr, align 8
  store ptr %0, ptr %2, align 8, !tbaa !200
  %3 = load ptr, ptr %2, align 8
  call void @_ZN21exec_given_tactic_cmdC2EPKc(ptr noundef nonnull align 8 dereferenceable(64) %3, ptr noundef @.str.90)
  store ptr getelementptr inbounds inrange(-16, 240) ({ [32 x ptr] }, ptr @_ZTV26check_sat_using_tactic_cmd, i32 0, i32 0, i32 2), ptr %3, align 8, !tbaa !31
  ret void
}

; Function Attrs: mustprogress uwtable
define linkonce_odr hidden void @_ZN15help_tactic_cmdC2Ev(ptr noundef nonnull align 8 dereferenceable(24) %0) unnamed_addr #4 comdat align 2 {
  %2 = alloca ptr, align 8
  store ptr %0, ptr %2, align 8, !tbaa !198
  %3 = load ptr, ptr %2, align 8
  call void @_ZN3cmdC2EPKc(ptr noundef nonnull align 8 dereferenceable(24) %3, ptr noundef @.str.88)
  store ptr getelementptr inbounds inrange(-16, 224) ({ [30 x ptr] }, ptr @_ZTV15help_tactic_cmd, i32 0, i32 0, i32 2), ptr %3, align 8, !tbaa !31
  ret void
}

; Function Attrs: mustprogress uwtable
define linkonce_odr hidden void @_ZN20get_user_tactics_cmdC2Ev(ptr noundef nonnull align 8 dereferenceable(24) %0) unnamed_addr #4 comdat align 2 {
  %2 = alloca ptr, align 8
  store ptr %0, ptr %2, align 8, !tbaa !196
  %3 = load ptr, ptr %2, align 8
  call void @_ZN3cmdC2EPKc(ptr noundef nonnull align 8 dereferenceable(24) %3, ptr noundef @.str.81)
  store ptr getelementptr inbounds inrange(-16, 224) ({ [30 x ptr] }, ptr @_ZTV20get_user_tactics_cmd, i32 0, i32 0, i32 2), ptr %3, align 8, !tbaa !31
  ret void
}

; Function Attrs: mustprogress uwtable
define linkonce_odr hidden void @_ZN18declare_tactic_cmdC2Ev(ptr noundef nonnull align 8 dereferenceable(40) %0) unnamed_addr #4 comdat align 2 {
  %2 = alloca ptr, align 8
  store ptr %0, ptr %2, align 8, !tbaa !190
  %3 = load ptr, ptr %2, align 8
  call void @_ZN3cmdC2EPKc(ptr noundef nonnull align 8 dereferenceable(24) %3, ptr noundef @.str.76)
  store ptr getelementptr inbounds inrange(-16, 224) ({ [30 x ptr] }, ptr @_ZTV18declare_tactic_cmd, i32 0, i32 0, i32 2), ptr %3, align 8, !tbaa !31
  %4 = getelementptr inbounds nuw %class.declare_tactic_cmd, ptr %3, i32 0, i32 1
  call void @_ZN6symbolC2Ev(ptr noundef nonnull align 8 dereferenceable(8) %4) #3
  %5 = getelementptr inbounds nuw %class.declare_tactic_cmd, ptr %3, i32 0, i32 2
  store ptr null, ptr %5, align 8, !tbaa !192
  ret void
}

; Function Attrs: mustprogress uwtable
define hidden void @_Z24install_core_tactic_cmdsR11cmd_context(ptr noundef nonnull align 8 dereferenceable(896) %0) #4 {
  %2 = alloca ptr, align 8
  store ptr %0, ptr %2, align 8, !tbaa !22
  %3 = load ptr, ptr %2, align 8, !tbaa !22
  %4 = call noalias noundef ptr @_ZN6memory8allocateEm(i64 noundef 40)
  call void @_ZN18declare_tactic_cmdC2Ev(ptr noundef nonnull align 8 dereferenceable(40) %4)
  call void @_ZN11cmd_context6insertEP3cmd(ptr noundef nonnull align 8 dereferenceable(896) %3, ptr noundef %4)
  %5 = load ptr, ptr %2, align 8, !tbaa !22
  %6 = call noalias noundef ptr @_ZN6memory8allocateEm(i64 noundef 24)
  call void @_ZN20get_user_tactics_cmdC2Ev(ptr noundef nonnull align 8 dereferenceable(24) %6)
  call void @_ZN11cmd_context6insertEP3cmd(ptr noundef nonnull align 8 dereferenceable(896) %5, ptr noundef %6)
  %7 = load ptr, ptr %2, align 8, !tbaa !22
  %8 = call noalias noundef ptr @_ZN6memory8allocateEm(i64 noundef 24)
  call void @_ZN15help_tactic_cmdC2Ev(ptr noundef nonnull align 8 dereferenceable(24) %8)
  call void @_ZN11cmd_context6insertEP3cmd(ptr noundef nonnull align 8 dereferenceable(896) %7, ptr noundef %8)
  %9 = load ptr, ptr %2, align 8, !tbaa !22
  %10 = call noalias noundef ptr @_ZN6memory8allocateEm(i64 noundef 64)
  call void @_ZN26check_sat_using_tactic_cmdC2Ev(ptr noundef nonnull align 8 dereferenceable(64) %10)
  call void @_ZN11cmd_context6insertEP3cmd(ptr noundef nonnull align 8 dereferenceable(896) %9, ptr noundef %10)
  %11 = load ptr, ptr %2, align 8, !tbaa !22
  %12 = call noalias noundef ptr @_ZN6memory8allocateEm(i64 noundef 64)
  call void @_ZN16apply_tactic_cmdC2Ev(ptr noundef nonnull align 8 dereferenceable(64) %12)
  call void @_ZN11cmd_context6insertEP3cmd(ptr noundef nonnull align 8 dereferenceable(896) %11, ptr noundef %12)
  %13 = load ptr, ptr %2, align 8, !tbaa !22
  %14 = getelementptr inbounds i8, ptr %13, i64 8
  call void @_Z15install_tacticsR14tactic_manager(ptr noundef nonnull align 8 dereferenceable(96) %14)
  ret void
}