; Function Attrs: mustprogress uwtable
define hidden void @_Z24install_core_tactic_cmdsR11cmd_context(ptr noundef nonnull align 8 dereferenceable(896) %0) local_unnamed_addr #5 personality ptr @__gxx_personality_v0 {
  %2 = tail call noalias noundef ptr @_ZN6memory8allocateEm(i64 noundef 40)
  store ptr getelementptr inbounds nuw inrange(-16, 224) (i8, ptr @_ZTV3cmd, i64 16), ptr %2, align 8, !tbaa !26
  %3 = getelementptr inbounds nuw i8, ptr %2, i64 8
  tail call void @_ZN6symbolC1EPKc(ptr noundef nonnull align 8 dereferenceable(8) %3, ptr noundef nonnull @.str.76)
  %4 = getelementptr inbounds nuw i8, ptr %2, i64 16
  store i32 0, ptr %4, align 8, !tbaa !188
  %5 = getelementptr inbounds nuw i8, ptr %2, i64 20
  store i32 0, ptr %5, align 4, !tbaa !190
  store ptr getelementptr inbounds nuw inrange(-16, 224) (i8, ptr @_ZTV18declare_tactic_cmd, i64 16), ptr %2, align 8, !tbaa !26
  %6 = getelementptr inbounds nuw i8, ptr %2, i64 24
  tail call void @llvm.memset.p0.i64(ptr noundef nonnull align 8 dereferenceable(16) %6, i8 0, i64 16, i1 false)
  tail call void @_ZN11cmd_context6insertEP3cmd(ptr noundef nonnull align 8 dereferenceable(896) %0, ptr noundef nonnull %2)
  %7 = tail call noalias noundef ptr @_ZN6memory8allocateEm(i64 noundef 24)
  store ptr getelementptr inbounds nuw inrange(-16, 224) (i8, ptr @_ZTV3cmd, i64 16), ptr %7, align 8, !tbaa !26
  %8 = getelementptr inbounds nuw i8, ptr %7, i64 8
  tail call void @_ZN6symbolC1EPKc(ptr noundef nonnull align 8 dereferenceable(8) %8, ptr noundef nonnull @.str.81)
  %9 = getelementptr inbounds nuw i8, ptr %7, i64 16
  store i32 0, ptr %9, align 8, !tbaa !188
  %10 = getelementptr inbounds nuw i8, ptr %7, i64 20
  store i32 0, ptr %10, align 4, !tbaa !190
  store ptr getelementptr inbounds nuw inrange(-16, 224) (i8, ptr @_ZTV20get_user_tactics_cmd, i64 16), ptr %7, align 8, !tbaa !26
  tail call void @_ZN11cmd_context6insertEP3cmd(ptr noundef nonnull align 8 dereferenceable(896) %0, ptr noundef nonnull %7)
  %11 = tail call noalias noundef ptr @_ZN6memory8allocateEm(i64 noundef 24)
  store ptr getelementptr inbounds nuw inrange(-16, 224) (i8, ptr @_ZTV3cmd, i64 16), ptr %11, align 8, !tbaa !26
  %12 = getelementptr inbounds nuw i8, ptr %11, i64 8
  tail call void @_ZN6symbolC1EPKc(ptr noundef nonnull align 8 dereferenceable(8) %12, ptr noundef nonnull @.str.88)
  %13 = getelementptr inbounds nuw i8, ptr %11, i64 16
  store i32 0, ptr %13, align 8, !tbaa !188
  %14 = getelementptr inbounds nuw i8, ptr %11, i64 20
  store i32 0, ptr %14, align 4, !tbaa !190
  store ptr getelementptr inbounds nuw inrange(-16, 224) (i8, ptr @_ZTV15help_tactic_cmd, i64 16), ptr %11, align 8, !tbaa !26
  tail call void @_ZN11cmd_context6insertEP3cmd(ptr noundef nonnull align 8 dereferenceable(896) %0, ptr noundef nonnull %11)
  %15 = tail call noalias noundef ptr @_ZN6memory8allocateEm(i64 noundef 64)
  store ptr getelementptr inbounds nuw inrange(-16, 224) (i8, ptr @_ZTV3cmd, i64 16), ptr %15, align 8, !tbaa !26
  %16 = getelementptr inbounds nuw i8, ptr %15, i64 8
  tail call void @_ZN6symbolC1EPKc(ptr noundef nonnull align 8 dereferenceable(8) %16, ptr noundef nonnull @.str.90)
  %17 = getelementptr inbounds nuw i8, ptr %15, i64 16
  tail call void @llvm.memset.p0.i64(ptr noundef nonnull align 8 dereferenceable(40) %17, i8 0, i64 40, i1 false)
  store ptr getelementptr inbounds nuw inrange(-16, 240) (i8, ptr @_ZTV26check_sat_using_tactic_cmd, i64 16), ptr %15, align 8, !tbaa !26
  tail call void @_ZN11cmd_context6insertEP3cmd(ptr noundef nonnull align 8 dereferenceable(896) %0, ptr noundef nonnull %15)
  %18 = tail call noalias noundef ptr @_ZN6memory8allocateEm(i64 noundef 64)
  store ptr getelementptr inbounds nuw inrange(-16, 224) (i8, ptr @_ZTV3cmd, i64 16), ptr %18, align 8, !tbaa !26
  %19 = getelementptr inbounds nuw i8, ptr %18, i64 8
  tail call void @_ZN6symbolC1EPKc(ptr noundef nonnull align 8 dereferenceable(8) %19, ptr noundef nonnull @.str.115)
  %20 = getelementptr inbounds nuw i8, ptr %18, i64 16
  tail call void @llvm.memset.p0.i64(ptr noundef nonnull align 8 dereferenceable(40) %20, i8 0, i64 40, i1 false)
  store ptr getelementptr inbounds nuw inrange(-16, 240) (i8, ptr @_ZTV16apply_tactic_cmd, i64 16), ptr %18, align 8, !tbaa !26
  tail call void @_ZN11cmd_context6insertEP3cmd(ptr noundef nonnull align 8 dereferenceable(896) %0, ptr noundef nonnull %18)
  %21 = getelementptr inbounds nuw i8, ptr %0, i64 8
  tail call void @_Z15install_tacticsR14tactic_manager(ptr noundef nonnull align 8 dereferenceable(96) %21)
  ret void
}